target datalayout = "e-m:e-p270:32:32-p271:32:32-p272:64:64-i64:64-i128:128-f80:128-n8:16:32:64-S128"
target triple = "x86_64-pc-linux-gnu"

%class.QString = type { %struct.QArrayDataPointer }
%struct.QArrayDataPointer = type { ptr, ptr, i64 }
%class.LteRlcGraphDialog = type <{ %class.WiresharkDialog.base, [3 x i8], ptr, i8, [7 x i8], ptr, %class.QPoint, ptr, %struct.rlc_graph, %class.QMultiMap, %class.QMap, ptr, ptr, ptr, ptr, ptr, i32, [4 x i8] }>
%class.WiresharkDialog.base = type <{ %class.GeometryStateDialog, ptr, i8, [7 x i8], %class.QString, %class.QList, i32, i8 }>
%class.GeometryStateDialog = type { %class.QDialog, %class.QString }
%class.QDialog = type { %class.QWidget }
%class.QWidget = type { %class.QObject, %class.QPaintDevice.base, ptr }
%class.QObject = type { ptr, %class.QScopedPointer }
%class.QScopedPointer = type { ptr }
%class.QPaintDevice.base = type <{ ptr, i16 }>
%class.QList = type { %struct.QArrayDataPointer.0 }
%struct.QArrayDataPointer.0 = type { ptr, ptr, i64 }
%class.QPoint = type { i32, i32 }
%struct.rlc_graph = type { ptr, ptr, i32, i8, i16, i16, i16, i8, i8 }
%class.QMultiMap = type { %"class.QtPrivate::QExplicitlySharedDataPointerV2" }
%"class.QtPrivate::QExplicitlySharedDataPointerV2" = type { ptr }
%class.QMap = type { %"class.QtPrivate::QExplicitlySharedDataPointerV2.1" }
%"class.QtPrivate::QExplicitlySharedDataPointerV2.1" = type { ptr }
%struct.rlc_segment = type { ptr, i32, i64, i32, i32, i32, i16, i32, i16, [512 x i32], i16, i8, i16, i16, i16, i8, i8, i16 }

; Function Attrs: mustprogress uwtable
define noundef zeroext i1 @_ZN17LteRlcGraphDialog14compareHeadersEP11rlc_segment(ptr noundef nonnull align 8 dereferenceable(268) %0, ptr noundef %1) #0 align 2 {
  %3 = alloca ptr, align 8
  %4 = alloca ptr, align 8
  store ptr %0, ptr %3, align 8
  store ptr %1, ptr %4, align 8
  %5 = load ptr, ptr %3, align 8
  %6 = getelementptr inbounds %class.LteRlcGraphDialog, ptr %5, i32 0, i32 8
  %7 = getelementptr inbounds %struct.rlc_graph, ptr %6, i32 0, i32 3
  %8 = load i8, ptr %7, align 4
  %9 = load ptr, ptr %4, align 8
  %10 = getelementptr inbounds %struct.rlc_segment, ptr %9, i32 0, i32 11
  %11 = load i8, ptr %10, align 2
  %12 = getelementptr inbounds %class.LteRlcGraphDialog, ptr %5, i32 0, i32 8
  %13 = getelementptr inbounds %struct.rlc_graph, ptr %12, i32 0, i32 4
  %14 = load i16, ptr %13, align 2
  %15 = getelementptr inbounds %class.LteRlcGraphDialog, ptr %5, i32 0, i32 8
  %16 = getelementptr inbounds %struct.rlc_graph, ptr %15, i32 0, i32 5
  %17 = load i16, ptr %16, align 8
  %18 = getelementptr inbounds %class.LteRlcGraphDialog, ptr %5, i32 0, i32 8
  %19 = getelementptr inbounds %struct.rlc_graph, ptr %18, i32 0, i32 6
  %20 = load i16, ptr %19, align 2
  %21 = getelementptr inbounds %class.LteRlcGraphDialog, ptr %5, i32 0, i32 8
  %22 = getelementptr inbounds %struct.rlc_graph, ptr %21, i32 0, i32 7
  %23 = load i8, ptr %22, align 4
  %24 = getelementptr inbounds %class.LteRlcGraphDialog, ptr %5, i32 0, i32 8
  %25 = getelementptr inbounds %struct.rlc_graph, ptr %24, i32 0, i32 8
  %26 = load i8, ptr %25, align 1
  %27 = load ptr, ptr %4, align 8
  %28 = getelementptr inbounds %struct.rlc_segment, ptr %27, i32 0, i32 12
  %29 = load i16, ptr %28, align 4
  %30 = load ptr, ptr %4, align 8
  %31 = getelementptr inbounds %struct.rlc_segment, ptr %30, i32 0, i32 13
  %32 = load i16, ptr %31, align 2
  %33 = load ptr, ptr %4, align 8
  %34 = getelementptr inbounds %struct.rlc_segment, ptr %33, i32 0, i32 14
  %35 = load i16, ptr %34, align 8
  %36 = load ptr, ptr %4, align 8
  %37 = getelementptr inbounds %struct.rlc_segment, ptr %36, i32 0, i32 15
  %38 = load i8, ptr %37, align 2
  %39 = load ptr, ptr %4, align 8
  %40 = getelementptr inbounds %struct.rlc_segment, ptr %39, i32 0, i32 16
  %41 = load i8, ptr %40, align 1
  %42 = load ptr, ptr %4, align 8
  %43 = getelementptr inbounds %struct.rlc_segment, ptr %42, i32 0, i32 4
  %44 = load i32, ptr %43, align 4
  %45 = call i32 @compare_rlc_headers(i8 noundef zeroext %8, i8 noundef zeroext %11, i16 noundef zeroext %14, i16 noundef zeroext %17, i16 noundef zeroext %20, i8 noundef zeroext %23, i8 noundef zeroext %26, i16 noundef zeroext %29, i16 noundef zeroext %32, i16 noundef zeroext %35, i8 noundef zeroext %38, i8 noundef zeroext %41, i32 noundef %44)
  %46 = icmp ne i32 %45, 0
  ret i1 %46
}