; Function Attrs: mustprogress uwtable
define noundef zeroext i1 @_ZN17LteRlcGraphDialog14compareHeadersEP11rlc_segment(ptr nocapture noundef nonnull readonly align 8 dereferenceable(268) %0, ptr nocapture noundef readonly %1) local_unnamed_addr #0 align 2 {
  %3 = getelementptr inbounds i8, ptr %0, i64 196
  %4 = load i8, ptr %3, align 4
  %5 = getelementptr inbounds i8, ptr %1, i64 2098
  %6 = load i8, ptr %5, align 2
  %7 = getelementptr inbounds i8, ptr %0, i64 198
  %8 = load i16, ptr %7, align 2
  %9 = getelementptr inbounds i8, ptr %0, i64 200
  %10 = load i16, ptr %9, align 8
  %11 = getelementptr inbounds i8, ptr %0, i64 202
  %12 = load i16, ptr %11, align 2
  %13 = getelementptr inbounds i8, ptr %0, i64 204
  %14 = load i8, ptr %13, align 4
  %15 = getelementptr inbounds i8, ptr %0, i64 205
  %16 = load i8, ptr %15, align 1
  %17 = getelementptr inbounds i8, ptr %1, i64 2100
  %18 = load i16, ptr %17, align 4
  %19 = getelementptr inbounds i8, ptr %1, i64 2102
  %20 = load i16, ptr %19, align 2
  %21 = getelementptr inbounds i8, ptr %1, i64 2104
  %22 = load i16, ptr %21, align 8
  %23 = getelementptr inbounds i8, ptr %1, i64 2106
  %24 = load i8, ptr %23, align 2
  %25 = getelementptr inbounds i8, ptr %1, i64 2107
  %26 = load i8, ptr %25, align 1
  %27 = getelementptr inbounds i8, ptr %1, i64 28
  %28 = load i32, ptr %27, align 4
  %29 = tail call i32 @compare_rlc_headers(i8 noundef zeroext %4, i8 noundef zeroext %6, i16 noundef zeroext %8, i16 noundef zeroext %10, i16 noundef zeroext %12, i8 noundef zeroext %14, i8 noundef zeroext %16, i16 noundef zeroext %18, i16 noundef zeroext %20, i16 noundef zeroext %22, i8 noundef zeroext %24, i8 noundef zeroext %26, i32 noundef %28)
  %30 = icmp ne i32 %29, 0
  ret i1 %30
}